; Function Attrs: mustprogress uwtable
define void @_ZN10IListRangeC2ERK10gmx_mtop_t(ptr noundef nonnull align 8 dereferenceable(32) %0, ptr noundef nonnull align 8 dereferenceable(768) %1) unnamed_addr #3 align 2 {
  %3 = alloca %class.IListIterator, align 8
  tail call void @_ZN13IListIteratorC1ERK10gmx_mtop_tm(ptr noundef nonnull align 8 dereferenceable(16) %0, ptr noundef nonnull align 8 dereferenceable(768) %1, i64 noundef 0)
  %4 = getelementptr inbounds i8, ptr %0, i64 16
  %5 = getelementptr inbounds i8, ptr %1, i64 136
  %6 = getelementptr inbounds i8, ptr %1, i64 144
  %7 = load ptr, ptr %6, align 8
  %8 = load ptr, ptr %5, align 8
  %9 = ptrtoint ptr %7 to i64
  %10 = ptrtoint ptr %8 to i64
  %11 = sub i64 %9, %10
  %12 = sdiv exact i64 %11, 56
  tail call void @_ZN13IListIteratorC1ERK10gmx_mtop_tm(ptr noundef nonnull align 8 dereferenceable(16) %4, ptr noundef nonnull align 8 dereferenceable(768) %1, i64 noundef %12)
  %13 = getelementptr inbounds i8, ptr %1, i64 160
  %14 = load i8, ptr %13, align 8
  %15 = trunc i8 %14 to i1
  br i1 %15, label %16, label %24

16:                                               ; preds = %2
  %17 = load ptr, ptr %6, align 8
  %18 = load ptr, ptr %5, align 8
  %19 = ptrtoint ptr %17 to i64
  %20 = ptrtoint ptr %18 to i64
  %21 = sub i64 %19, %20
  %22 = sdiv exact i64 %21, 56
  %23 = add nsw i64 %22, 1
  call void @_ZN13IListIteratorC1ERK10gmx_mtop_tm(ptr noundef nonnull align 8 dereferenceable(16) %3, ptr noundef nonnull align 8 dereferenceable(768) %1, i64 noundef %23)
  call void @llvm.memcpy.p0.p0.i64(ptr noundef nonnull align 8 dereferenceable(16) %4, ptr noundef nonnull align 8 dereferenceable(16) %3, i64 16, i1 false)
  br label %24

24:                                               ; preds = %16, %2
  ret void
}